target datalayout = "e-m:e-p270:32:32-p271:32:32-p272:64:64-i64:64-i128:128-f80:128-n8:16:32:64-S128"
target triple = "x86_64-pc-linux-gnu"

%class.ReservedSpace = type <{ ptr, i64, i64, i64, i64, i8, [3 x i8], i32, i8, [7 x i8] }>

@_ZN12G1HeapRegion10GrainBytesE = external global i64, align 8

; Function Attrs: mustprogress nounwind uwtable
define linkonce_odr hidden noundef i64 @_ZNK13ReservedSpace4sizeEv(ptr noundef nonnull align 8 dereferenceable(49) %0) #1 comdat align 2 {
  %2 = alloca ptr, align 8
  store ptr %0, ptr %2, align 8
  %3 = load ptr, ptr %2, align 8
  %4 = getelementptr inbounds %class.ReservedSpace, ptr %3, i32 0, i32 1
  %5 = load i64, ptr %4, align 8
  ret i64 %5
}

; Function Attrs: mustprogress nounwind uwtable
define linkonce_odr hidden noundef ptr @_ZNK13ReservedSpace4baseEv(ptr noundef nonnull align 8 dereferenceable(49) %0) #1 comdat align 2 {
  %2 = alloca ptr, align 8
  store ptr %0, ptr %2, align 8
  %3 = load ptr, ptr %2, align 8
  %4 = getelementptr inbounds %class.ReservedSpace, ptr %3, i32 0, i32 0
  %5 = load ptr, ptr %4, align 8
  ret ptr %5
}

; Function Attrs: mustprogress nounwind uwtable
define linkonce_odr hidden noundef i64 @_ZNK13ReservedSpace9page_sizeEv(ptr noundef nonnull align 8 dereferenceable(49) %0) #1 comdat align 2 {
  %2 = alloca ptr, align 8
  store ptr %0, ptr %2, align 8
  %3 = load ptr, ptr %2, align 8
  %4 = getelementptr inbounds %class.ReservedSpace, ptr %3, i32 0, i32 4
  %5 = load i64, ptr %4, align 8
  ret i64 %5
}

; Function Attrs: mustprogress nounwind uwtable
define hidden noundef ptr @_ZN15G1CollectedHeap24create_aux_memory_mapperEPKcmm(ptr noundef %0, i64 noundef %1, i64 noundef %2) #1 align 2 {
  %4 = alloca ptr, align 8
  %5 = alloca i64, align 8
  %6 = alloca i64, align 8
  %7 = alloca i64, align 8
  %8 = alloca %class.ReservedSpace, align 8
  %9 = alloca i64, align 8
  %10 = alloca ptr, align 8
  %11 = alloca %class.ReservedSpace, align 8
  store ptr %0, ptr %4, align 8
  store i64 %1, ptr %5, align 8
  store i64 %2, ptr %6, align 8
  %12 = load i64, ptr %5, align 8
  %13 = call noundef i64 @_ZN2os30page_size_for_region_unalignedEmm(i64 noundef %12, i64 noundef 1)
  store i64 %13, ptr %7, align 8
  %14 = load i64, ptr %5, align 8
  %15 = load i64, ptr %7, align 8
  call void @_ZN13ReservedSpaceC1Emm(ptr noundef nonnull align 8 dereferenceable(49) %8, i64 noundef %14, i64 noundef %15)
  %16 = call noundef i64 @_ZNK13ReservedSpace9page_sizeEv(ptr noundef nonnull align 8 dereferenceable(49) %8)
  store i64 %16, ptr %9, align 8
  call void @llvm.memcpy.p0.p0.i64(ptr align 8 %11, ptr align 8 %8, i64 56, i1 false)
  %17 = load i64, ptr %5, align 8
  %18 = load i64, ptr %9, align 8
  %19 = load i64, ptr @_ZN12G1HeapRegion10GrainBytesE, align 8
  %20 = load i64, ptr %6, align 8
  %21 = call noundef ptr @_ZN21G1RegionToSpaceMapper13create_mapperE13ReservedSpacemmmm8MEMFLAGS(ptr noundef byval(%class.ReservedSpace) align 8 %11, i64 noundef %17, i64 noundef %18, i64 noundef %19, i64 noundef %20, i8 noundef zeroext 5)
  store ptr %21, ptr %10, align 8
  %22 = load ptr, ptr %4, align 8
  %23 = load i64, ptr %5, align 8
  %24 = load i64, ptr %7, align 8
  %25 = call noundef ptr @_ZNK13ReservedSpace4baseEv(ptr noundef nonnull align 8 dereferenceable(49) %8)
  %26 = call noundef i64 @_ZNK13ReservedSpace4sizeEv(ptr noundef nonnull align 8 dereferenceable(49) %8)
  %27 = load i64, ptr %9, align 8
  call void @_ZN2os35trace_page_sizes_for_requested_sizeEPKcmmS1_mm(ptr noundef %22, i64 noundef %23, i64 noundef %24, ptr noundef %25, i64 noundef %26, i64 noundef %27)
  %28 = load ptr, ptr %10, align 8
  ret ptr %28
}