; Function Attrs: mustprogress nounwind uwtable
define hidden noundef ptr @_ZN15G1CollectedHeap24create_aux_memory_mapperEPKcmm(ptr noundef %0, i64 noundef %1, i64 noundef %2) local_unnamed_addr #0 align 2 {
  %4 = alloca %class.ReservedSpace, align 8
  %5 = tail call noundef i64 @_ZN2os30page_size_for_region_unalignedEmm(i64 noundef %1, i64 noundef 1) #23
  call void @_ZN13ReservedSpaceC1Emm(ptr noundef nonnull align 8 dereferenceable(49) %4, i64 noundef %1, i64 noundef %5) #23
  %6 = getelementptr inbounds i8, ptr %4, i64 32
  %7 = load i64, ptr %6, align 8
  %8 = load i64, ptr @_ZN12G1HeapRegion10GrainBytesE, align 8
  %9 = call noundef ptr @_ZN21G1RegionToSpaceMapper13create_mapperE13ReservedSpacemmmm8MEMFLAGS(ptr noundef nonnull byval(%class.ReservedSpace) align 8 %4, i64 noundef %1, i64 noundef %7, i64 noundef %8, i64 noundef %2, i8 noundef zeroext 5) #23
  %10 = load ptr, ptr %4, align 8
  %11 = getelementptr inbounds i8, ptr %4, i64 8
  %12 = load i64, ptr %11, align 8
  call void @_ZN2os35trace_page_sizes_for_requested_sizeEPKcmmS1_mm(ptr noundef %0, i64 noundef %1, i64 noundef %5, ptr noundef %10, i64 noundef %12, i64 noundef %7) #23
  ret ptr %9
}